target datalayout = "e-m:e-p270:32:32-p271:32:32-p272:64:64-i64:64-i128:128-f80:128-n8:16:32:64-S128"
target triple = "x86_64-pc-linux-gnu"

%struct.Abc_Aig_t_ = type { ptr, ptr, ptr, i32, i32, ptr, ptr, ptr, ptr, ptr, ptr, ptr, i32, i32, i32, i32 }
%struct.Abc_Obj_t_ = type { ptr, ptr, i32, i32, %struct.Vec_Int_t_, %struct.Vec_Int_t_, %union.anon, %union.anon.0 }
%struct.Vec_Int_t_ = type { i32, i32, ptr }
%union.anon = type { ptr }
%union.anon.0 = type { ptr }

@.str.18 = private unnamed_addr constant [41 x i8] c"Counter = %d.  Nodes = %d.  Ave = %6.2f\0A\00", align 1

; Function Attrs: nounwind uwtable
define i32 @Abc_AigCountNext(ptr noundef %0) #0 {
  %2 = alloca ptr, align 8
  %3 = alloca ptr, align 8
  %4 = alloca i32, align 4
  %5 = alloca i32, align 4
  %6 = alloca i32, align 4
  store ptr %0, ptr %2, align 8
  store i32 0, ptr %5, align 4
  store i32 0, ptr %6, align 4
  store i32 0, ptr %4, align 4
  br label %7

7:                                                ; preds = %39, %1
  %8 = load i32, ptr %4, align 4
  %9 = load ptr, ptr %2, align 8
  %10 = getelementptr inbounds %struct.Abc_Aig_t_, ptr %9, i32 0, i32 3
  %11 = load i32, ptr %10, align 8
  %12 = icmp slt i32 %8, %11
  br i1 %12, label %13, label %42

13:                                               ; preds = %7
  %14 = load ptr, ptr %2, align 8
  %15 = getelementptr inbounds %struct.Abc_Aig_t_, ptr %14, i32 0, i32 2
  %16 = load ptr, ptr %15, align 8
  %17 = load i32, ptr %4, align 4
  %18 = sext i32 %17 to i64
  %19 = getelementptr inbounds ptr, ptr %16, i64 %18
  %20 = load ptr, ptr %19, align 8
  store ptr %20, ptr %3, align 8
  br label %21

21:                                               ; preds = %34, %13
  %22 = load ptr, ptr %3, align 8
  %23 = icmp ne ptr %22, null
  br i1 %23, label %24, label %38

24:                                               ; preds = %21
  %25 = load ptr, ptr %3, align 8
  %26 = getelementptr inbounds %struct.Abc_Obj_t_, ptr %25, i32 0, i32 1
  %27 = load ptr, ptr %26, align 8
  %28 = icmp ne ptr %27, null
  %29 = zext i1 %28 to i32
  %30 = load i32, ptr %5, align 4
  %31 = add nsw i32 %30, %29
  store i32 %31, ptr %5, align 4
  %32 = load i32, ptr %6, align 4
  %33 = add nsw i32 %32, 1
  store i32 %33, ptr %6, align 4
  br label %34

34:                                               ; preds = %24
  %35 = load ptr, ptr %3, align 8
  %36 = getelementptr inbounds %struct.Abc_Obj_t_, ptr %35, i32 0, i32 1
  %37 = load ptr, ptr %36, align 8
  store ptr %37, ptr %3, align 8
  br label %21, !llvm.loop !50

38:                                               ; preds = %21
  br label %39

39:                                               ; preds = %38
  %40 = load i32, ptr %4, align 4
  %41 = add nsw i32 %40, 1
  store i32 %41, ptr %4, align 4
  br label %7, !llvm.loop !51

42:                                               ; preds = %7
  %43 = load i32, ptr %5, align 4
  %44 = load i32, ptr %6, align 4
  %45 = load i32, ptr %6, align 4
  %46 = sitofp i32 %45 to double
  %47 = fmul double 1.000000e+00, %46
  %48 = load ptr, ptr %2, align 8
  %49 = getelementptr inbounds %struct.Abc_Aig_t_, ptr %48, i32 0, i32 3
  %50 = load i32, ptr %49, align 8
  %51 = sitofp i32 %50 to double
  %52 = fdiv double %47, %51
  %53 = call i32 (ptr, ...) @printf(ptr noundef @.str.18, i32 noundef %43, i32 noundef %44, double noundef %52)
  %54 = load i32, ptr %5, align 4
  ret i32 %54
}