; Function Attrs: nofree nounwind uwtable
define noundef i32 @Abc_AigCountNext(ptr noundef readonly captures(none) %0) local_unnamed_addr #9 {
  %2 = getelementptr inbounds nuw i8, ptr %0, i64 24
  %3 = load i32, ptr %2, align 8
  %4 = icmp sgt i32 %3, 0
  br i1 %4, label %.lr.ph28, label %._crit_edge29

.lr.ph28:                                         ; preds = %1
  %5 = getelementptr inbounds nuw i8, ptr %0, i64 16
  %6 = load ptr, ptr %5, align 8
  %wide.trip.count = zext nneg i32 %3 to i64
  br label %7

7:                                                ; preds = %.lr.ph28, %._crit_edge
  %indvars.iv = phi i64 [ 0, %.lr.ph28 ], [ %indvars.iv.next, %._crit_edge ]
  %.026 = phi i32 [ 0, %.lr.ph28 ], [ %.1.lcssa, %._crit_edge ]
  %.01425 = phi i32 [ 0, %.lr.ph28 ], [ %.115.lcssa, %._crit_edge ]
  %8 = getelementptr inbounds nuw ptr, ptr %6, i64 %indvars.iv
  %9 = load ptr, ptr %8, align 8
  %.not19 = icmp eq ptr %9, null
  br i1 %.not19, label %._crit_edge, label %.lr.ph

.lr.ph:                                           ; preds = %7, %.lr.ph
  %.122 = phi i32 [ %15, %.lr.ph ], [ %.026, %7 ]
  %.11521 = phi i32 [ %14, %.lr.ph ], [ %.01425, %7 ]
  %.01720 = phi ptr [ %11, %.lr.ph ], [ %9, %7 ]
  %10 = getelementptr inbounds nuw i8, ptr %.01720, i64 8
  %11 = load ptr, ptr %10, align 8
  %12 = icmp ne ptr %11, null
  %13 = zext i1 %12 to i32
  %14 = add nsw i32 %.11521, %13
  %15 = add nsw i32 %.122, 1
  %.not = icmp eq ptr %11, null
  br i1 %.not, label %._crit_edge, label %.lr.ph, !llvm.loop !54

._crit_edge:                                      ; preds = %.lr.ph, %7
  %.115.lcssa = phi i32 [ %.01425, %7 ], [ %14, %.lr.ph ]
  %.1.lcssa = phi i32 [ %.026, %7 ], [ %15, %.lr.ph ]
  %indvars.iv.next = add nuw nsw i64 %indvars.iv, 1
  %exitcond.not = icmp eq i64 %indvars.iv.next, %wide.trip.count
  br i1 %exitcond.not, label %._crit_edge29, label %7, !llvm.loop !55

._crit_edge29:                                    ; preds = %._crit_edge, %1
  %.014.lcssa = phi i32 [ 0, %1 ], [ %.115.lcssa, %._crit_edge ]
  %.0.lcssa = phi i32 [ 0, %1 ], [ %.1.lcssa, %._crit_edge ]
  %16 = sitofp i32 %.0.lcssa to double
  %17 = sitofp i32 %3 to double
  %18 = fdiv double %16, %17
  %19 = tail call i32 (ptr, ...) @printf(ptr noundef nonnull dereferenceable(1) @.str.18, i32 noundef %.014.lcssa, i32 noundef %.0.lcssa, double noundef %18)
  ret i32 %.014.lcssa
}